; ModuleID = '35/2453.c'
source_filename = "35/2453.c"
target datalayout = "e-m:e-p270:32:32-p271:32:32-p272:64:64-i64:64-f80:128-n8:16:32:64-S128"
target triple = "x86_64-pc-linux-gnu"

@.str = private unnamed_addr constant [6 x i8] c"%d,%d\00", align 1
@.str.1 = private unnamed_addr constant [3 x i8] c"%d\00", align 1
@.str.2 = private unnamed_addr constant [6 x i8] c"%d+%d\00", align 1
@.str.3 = private unnamed_addr constant [3 x i8] c"No\00", align 1

; Function Attrs: noinline nounwind uwtable
define dso_local i32 @main() #0 {
  %1 = alloca i32, align 4
  %2 = alloca i32, align 4
  %3 = alloca i32, align 4
  %4 = alloca [9 x [9 x i32]], align 16
  %5 = alloca i32, align 4
  %6 = alloca i32, align 4
  %7 = alloca i32, align 4
  %8 = alloca i32, align 4
  %9 = alloca i32, align 4
  %10 = alloca i32, align 4
  %11 = alloca i32, align 4
  store i32 0, i32* %1, align 4
  %12 = call i32 (i8*, ...) @__isoc99_scanf(i8* getelementptr inbounds ([6 x i8], [6 x i8]* @.str, i64 0, i64 0), i32* %2, i32* %3)
  store i32 0, i32* %5, align 4
  br label %13

13:                                               ; preds = %34, %0
  %14 = load i32, i32* %5, align 4
  %15 = load i32, i32* %2, align 4
  %16 = icmp slt i32 %14, %15
  br i1 %16, label %17, label %37

17:                                               ; preds = %13
  store i32 0, i32* %6, align 4
  br label %18

18:                                               ; preds = %30, %17
  %19 = load i32, i32* %6, align 4
  %20 = load i32, i32* %3, align 4
  %21 = icmp slt i32 %19, %20
  br i1 %21, label %22, label %33

22:                                               ; preds = %18
  %23 = load i32, i32* %5, align 4
  %24 = sext i32 %23 to i64
  %25 = getelementptr inbounds [9 x [9 x i32]], [9 x [9 x i32]]* %4, i64 0, i64 %24
  %26 = load i32, i32* %6, align 4
  %27 = sext i32 %26 to i64
  %28 = getelementptr inbounds [9 x i32], [9 x i32]* %25, i64 0, i64 %27
  %29 = call i32 (i8*, ...) @__isoc99_scanf(i8* getelementptr inbounds ([3 x i8], [3 x i8]* @.str.1, i64 0, i64 0), i32* %28)
  br label %30

30:                                               ; preds = %22
  %31 = load i32, i32* %6, align 4
  %32 = add nsw i32 %31, 1
  store i32 %32, i32* %6, align 4
  br label %18

33:                                               ; preds = %18
  br label %34

34:                                               ; preds = %33
  %35 = load i32, i32* %5, align 4
  %36 = add nsw i32 %35, 1
  store i32 %36, i32* %5, align 4
  br label %13

37:                                               ; preds = %13
  store i32 0, i32* %7, align 4
  store i32 0, i32* %5, align 4
  br label %38

38:                                               ; preds = %118, %37
  %39 = load i32, i32* %5, align 4
  %40 = load i32, i32* %2, align 4
  %41 = icmp slt i32 %39, %40
  br i1 %41, label %42, label %121

42:                                               ; preds = %38
  store i32 0, i32* %9, align 4
  %43 = load i32, i32* %5, align 4
  %44 = sext i32 %43 to i64
  %45 = getelementptr inbounds [9 x [9 x i32]], [9 x [9 x i32]]* %4, i64 0, i64 %44
  %46 = getelementptr inbounds [9 x i32], [9 x i32]* %45, i64 0, i64 0
  %47 = load i32, i32* %46, align 4
  store i32 %47, i32* %8, align 4
  store i32 0, i32* %6, align 4
  br label %48

48:                                               ; preds = %82, %42
  %49 = load i32, i32* %6, align 4
  %50 = load i32, i32* %3, align 4
  %51 = sub nsw i32 %50, 1
  %52 = icmp slt i32 %49, %51
  br i1 %52, label %53, label %85

53:                                               ; preds = %48
  %54 = load i32, i32* %5, align 4
  %55 = sext i32 %54 to i64
  %56 = getelementptr inbounds [9 x [9 x i32]], [9 x [9 x i32]]* %4, i64 0, i64 %55
  %57 = load i32, i32* %6, align 4
  %58 = sext i32 %57 to i64
  %59 = getelementptr inbounds [9 x i32], [9 x i32]* %56, i64 0, i64 %58
  %60 = load i32, i32* %59, align 4
  %61 = load i32, i32* %5, align 4
  %62 = sext i32 %61 to i64
  %63 = getelementptr inbounds [9 x [9 x i32]], [9 x [9 x i32]]* %4, i64 0, i64 %62
  %64 = load i32, i32* %6, align 4
  %65 = add nsw i32 %64, 1
  %66 = sext i32 %65 to i64
  %67 = getelementptr inbounds [9 x i32], [9 x i32]* %63, i64 0, i64 %66
  %68 = load i32, i32* %67, align 4
  %69 = icmp slt i32 %60, %68
  br i1 %69, label %70, label %81

70:                                               ; preds = %53
  %71 = load i32, i32* %5, align 4
  %72 = sext i32 %71 to i64
  %73 = getelementptr inbounds [9 x [9 x i32]], [9 x [9 x i32]]* %4, i64 0, i64 %72
  %74 = load i32, i32* %6, align 4
  %75 = add nsw i32 %74, 1
  %76 = sext i32 %75 to i64
  %77 = getelementptr inbounds [9 x i32], [9 x i32]* %73, i64 0, i64 %76
  %78 = load i32, i32* %77, align 4
  store i32 %78, i32* %8, align 4
  %79 = load i32, i32* %6, align 4
  %80 = add nsw i32 %79, 1
  store i32 %80, i32* %9, align 4
  br label %81

81:                                               ; preds = %70, %53
  br label %82

82:                                               ; preds = %81
  %83 = load i32, i32* %6, align 4
  %84 = add nsw i32 %83, 1
  store i32 %84, i32* %6, align 4
  br label %48

85:                                               ; preds = %48
  store i32 0, i32* %10, align 4
  store i32 0, i32* %11, align 4
  br label %86

86:                                               ; preds = %104, %85
  %87 = load i32, i32* %11, align 4
  %88 = load i32, i32* %2, align 4
  %89 = icmp slt i32 %87, %88
  br i1 %89, label %90, label %107

90:                                               ; preds = %86
  %91 = load i32, i32* %8, align 4
  %92 = load i32, i32* %11, align 4
  %93 = sext i32 %92 to i64
  %94 = getelementptr inbounds [9 x [9 x i32]], [9 x [9 x i32]]* %4, i64 0, i64 %93
  %95 = load i32, i32* %9, align 4
  %96 = sext i32 %95 to i64
  %97 = getelementptr inbounds [9 x i32], [9 x i32]* %94, i64 0, i64 %96
  %98 = load i32, i32* %97, align 4
  %99 = icmp sle i32 %91, %98
  br i1 %99, label %100, label %103

100:                                              ; preds = %90
  %101 = load i32, i32* %10, align 4
  %102 = add nsw i32 %101, 1
  store i32 %102, i32* %10, align 4
  br label %103

103:                                              ; preds = %100, %90
  br label %104

104:                                              ; preds = %103
  %105 = load i32, i32* %11, align 4
  %106 = add nsw i32 %105, 1
  store i32 %106, i32* %11, align 4
  br label %86

107:                                              ; preds = %86
  %108 = load i32, i32* %10, align 4
  %109 = load i32, i32* %2, align 4
  %110 = icmp eq i32 %108, %109
  br i1 %110, label %111, label %115

111:                                              ; preds = %107
  %112 = load i32, i32* %5, align 4
  %113 = load i32, i32* %9, align 4
  %114 = call i32 (i8*, ...) @printf(i8* getelementptr inbounds ([6 x i8], [6 x i8]* @.str.2, i64 0, i64 0), i32 %112, i32 %113)
  br label %121

115:                                              ; preds = %107
  %116 = load i32, i32* %7, align 4
  %117 = add nsw i32 %116, 1
  store i32 %117, i32* %7, align 4
  br label %118

118:                                              ; preds = %115
  %119 = load i32, i32* %5, align 4
  %120 = add nsw i32 %119, 1
  store i32 %120, i32* %5, align 4
  br label %38

121:                                              ; preds = %111, %38
  %122 = load i32, i32* %7, align 4
  %123 = load i32, i32* %2, align 4
  %124 = icmp eq i32 %122, %123
  br i1 %124, label %125, label %127

125:                                              ; preds = %121
  %126 = call i32 (i8*, ...) @printf(i8* getelementptr inbounds ([3 x i8], [3 x i8]* @.str.3, i64 0, i64 0))
  br label %127

127:                                              ; preds = %125, %121
  ret i32 0
}

declare dso_local i32 @__isoc99_scanf(i8*, ...) #1

declare dso_local i32 @printf(i8*, ...) #1


!llvm.module.flags = !{!0}
!llvm.ident = !{!1}

!0 = !{i32 1, !"wchar_size", i32 4}
!1 = !{!"clang version 10.0.0-4ubuntu1 "}
